#include <math.h>
#include <stdio.h>
#include <stdlib.h>
#include <string.h>

int main(){
    int m,n,x,y,c,d,e,f,g;
	int a[100][100];
	scanf("%d %d",&n,&m);
	g=m*n;
	c=0;
	d=0;
	e=0;
	f=0;
	for(y=0;y<n;y++){
		for(x=0;x<m;x++){
			scanf("%d",&a[x][y]);
		}
	}

    while(g!=0){	
	if(g!=0){
		if(c+d!=m-1){
			for(x=c;x<m-d;x++){
				printf("%d\n",a[x][e]);
				g--;
			}
			e++;
		}else{
			printf("%d\n",a[c][e]);
			g--;
			e++;
		}
	}
	
	if(g!=0){
		if(e+f!=n-1){
			for(y=e;y<n-f;y++){
				printf("%d\n",a[m-d-1][y]);
				g--;
				
			}
			d++;
		}else{
			printf("%d\n",a[m-d-1][e]);
            d++;
			g--;
		}
	}
	
	if(g!=0){
		if(c+d!=m-1){
			for(x=m-d-1;x>=c;x--){
				printf("%d\n",a[x][n-f-1]);
				g--;
			}
			f++;
		}else{
			printf("%d\n",a[c][n-f-1]);
			g--;
			f++;
		}
	}
	if(g!=0){
		if(e+f!=n-1){
			for(y=n-f-1;y>=e;y--){
				printf("%d\n",a[c][y]);
				g--;
				
			}
			c++;
		
		}else{
			printf("%d\n",a[c][e]);
			c++;
			g--;
		}
	}
	}
	
	

	return 0;
}