target datalayout = "e-m:e-p270:32:32-p271:32:32-p272:64:64-i64:64-f80:128-n8:16:32:64-S128"
target triple = "x86_64-pc-linux-gnu"

@.str = private unnamed_addr constant [6 x i8] c"%d %d\00", align 1
@.str.1 = private unnamed_addr constant [3 x i8] c"%d\00", align 1
@.str.2 = private unnamed_addr constant [4 x i8] c"%d\0A\00", align 1

; Function Attrs: noinline nounwind uwtable
define dso_local i32 @main() #0 {
  %1 = alloca i32, align 4
  %2 = alloca i32, align 4
  %3 = alloca i32, align 4
  %4 = alloca i32, align 4
  %5 = alloca i32, align 4
  %6 = alloca i32, align 4
  %7 = alloca i32, align 4
  %8 = alloca i32, align 4
  %9 = alloca i32, align 4
  %10 = alloca i32, align 4
  %11 = alloca [100 x [100 x i32]], align 16
  store i32 0, i32* %1, align 4
  %12 = call i32 (i8*, ...) @__isoc99_scanf(i8* getelementptr inbounds ([6 x i8], [6 x i8]* @.str, i64 0, i64 0), i32* %3, i32* %2)
  %13 = load i32, i32* %2, align 4
  %14 = load i32, i32* %3, align 4
  %15 = mul nsw i32 %13, %14
  store i32 %15, i32* %10, align 4
  store i32 0, i32* %6, align 4
  store i32 0, i32* %7, align 4
  store i32 0, i32* %8, align 4
  store i32 0, i32* %9, align 4
  store i32 0, i32* %5, align 4
  br label %16

16:                                               ; preds = %37, %0
  %17 = load i32, i32* %5, align 4
  %18 = load i32, i32* %3, align 4
  %19 = icmp slt i32 %17, %18
  br i1 %19, label %20, label %40

20:                                               ; preds = %16
  store i32 0, i32* %4, align 4
  br label %21

21:                                               ; preds = %33, %20
  %22 = load i32, i32* %4, align 4
  %23 = load i32, i32* %2, align 4
  %24 = icmp slt i32 %22, %23
  br i1 %24, label %25, label %36

25:                                               ; preds = %21
  %26 = load i32, i32* %4, align 4
  %27 = sext i32 %26 to i64
  %28 = getelementptr inbounds [100 x [100 x i32]], [100 x [100 x i32]]* %11, i64 0, i64 %27
  %29 = load i32, i32* %5, align 4
  %30 = sext i32 %29 to i64
  %31 = getelementptr inbounds [100 x i32], [100 x i32]* %28, i64 0, i64 %30
  %32 = call i32 (i8*, ...) @__isoc99_scanf(i8* getelementptr inbounds ([3 x i8], [3 x i8]* @.str.1, i64 0, i64 0), i32* %31)
  br label %33

33:                                               ; preds = %25
  %34 = load i32, i32* %4, align 4
  %35 = add nsw i32 %34, 1
  store i32 %35, i32* %4, align 4
  br label %21

36:                                               ; preds = %21
  br label %37

37:                                               ; preds = %36
  %38 = load i32, i32* %5, align 4
  %39 = add nsw i32 %38, 1
  store i32 %39, i32* %5, align 4
  br label %16

40:                                               ; preds = %16
  br label %41

41:                                               ; preds = %254, %40
  %42 = load i32, i32* %10, align 4
  %43 = icmp ne i32 %42, 0
  br i1 %43, label %44, label %255

44:                                               ; preds = %41
  %45 = load i32, i32* %10, align 4
  %46 = icmp ne i32 %45, 0
  br i1 %46, label %47, label %93

47:                                               ; preds = %44
  %48 = load i32, i32* %6, align 4
  %49 = load i32, i32* %7, align 4
  %50 = add nsw i32 %48, %49
  %51 = load i32, i32* %2, align 4
  %52 = sub nsw i32 %51, 1
  %53 = icmp ne i32 %50, %52
  br i1 %53, label %54, label %79

54:                                               ; preds = %47
  %55 = load i32, i32* %6, align 4
  store i32 %55, i32* %4, align 4
  br label %56

56:                                               ; preds = %73, %54
  %57 = load i32, i32* %4, align 4
  %58 = load i32, i32* %2, align 4
  %59 = load i32, i32* %7, align 4
  %60 = sub nsw i32 %58, %59
  %61 = icmp slt i32 %57, %60
  br i1 %61, label %62, label %76

62:                                               ; preds = %56
  %63 = load i32, i32* %4, align 4
  %64 = sext i32 %63 to i64
  %65 = getelementptr inbounds [100 x [100 x i32]], [100 x [100 x i32]]* %11, i64 0, i64 %64
  %66 = load i32, i32* %8, align 4
  %67 = sext i32 %66 to i64
  %68 = getelementptr inbounds [100 x i32], [100 x i32]* %65, i64 0, i64 %67
  %69 = load i32, i32* %68, align 4
  %70 = call i32 (i8*, ...) @printf(i8* getelementptr inbounds ([4 x i8], [4 x i8]* @.str.2, i64 0, i64 0), i32 %69)
  %71 = load i32, i32* %10, align 4
  %72 = add nsw i32 %71, -1
  store i32 %72, i32* %10, align 4
  br label %73

73:                                               ; preds = %62
  %74 = load i32, i32* %4, align 4
  %75 = add nsw i32 %74, 1
  store i32 %75, i32* %4, align 4
  br label %56

76:                                               ; preds = %56
  %77 = load i32, i32* %8, align 4
  %78 = add nsw i32 %77, 1
  store i32 %78, i32* %8, align 4
  br label %92

79:                                               ; preds = %47
  %80 = load i32, i32* %6, align 4
  %81 = sext i32 %80 to i64
  %82 = getelementptr inbounds [100 x [100 x i32]], [100 x [100 x i32]]* %11, i64 0, i64 %81
  %83 = load i32, i32* %8, align 4
  %84 = sext i32 %83 to i64
  %85 = getelementptr inbounds [100 x i32], [100 x i32]* %82, i64 0, i64 %84
  %86 = load i32, i32* %85, align 4
  %87 = call i32 (i8*, ...) @printf(i8* getelementptr inbounds ([4 x i8], [4 x i8]* @.str.2, i64 0, i64 0), i32 %86)
  %88 = load i32, i32* %10, align 4
  %89 = add nsw i32 %88, -1
  store i32 %89, i32* %10, align 4
  %90 = load i32, i32* %8, align 4
  %91 = add nsw i32 %90, 1
  store i32 %91, i32* %8, align 4
  br label %92

92:                                               ; preds = %79, %76
  br label %93

93:                                               ; preds = %92, %44
  %94 = load i32, i32* %10, align 4
  %95 = icmp ne i32 %94, 0
  br i1 %95, label %96, label %148

96:                                               ; preds = %93
  %97 = load i32, i32* %8, align 4
  %98 = load i32, i32* %9, align 4
  %99 = add nsw i32 %97, %98
  %100 = load i32, i32* %3, align 4
  %101 = sub nsw i32 %100, 1
  %102 = icmp ne i32 %99, %101
  br i1 %102, label %103, label %131

103:                                              ; preds = %96
  %104 = load i32, i32* %8, align 4
  store i32 %104, i32* %5, align 4
  br label %105

105:                                              ; preds = %125, %103
  %106 = load i32, i32* %5, align 4
  %107 = load i32, i32* %3, align 4
  %108 = load i32, i32* %9, align 4
  %109 = sub nsw i32 %107, %108
  %110 = icmp slt i32 %106, %109
  br i1 %110, label %111, label %128

111:                                              ; preds = %105
  %112 = load i32, i32* %2, align 4
  %113 = load i32, i32* %7, align 4
  %114 = sub nsw i32 %112, %113
  %115 = sub nsw i32 %114, 1
  %116 = sext i32 %115 to i64
  %117 = getelementptr inbounds [100 x [100 x i32]], [100 x [100 x i32]]* %11, i64 0, i64 %116
  %118 = load i32, i32* %5, align 4
  %119 = sext i32 %118 to i64
  %120 = getelementptr inbounds [100 x i32], [100 x i32]* %117, i64 0, i64 %119
  %121 = load i32, i32* %120, align 4
  %122 = call i32 (i8*, ...) @printf(i8* getelementptr inbounds ([4 x i8], [4 x i8]* @.str.2, i64 0, i64 0), i32 %121)
  %123 = load i32, i32* %10, align 4
  %124 = add nsw i32 %123, -1
  store i32 %124, i32* %10, align 4
  br label %125

125:                                              ; preds = %111
  %126 = load i32, i32* %5, align 4
  %127 = add nsw i32 %126, 1
  store i32 %127, i32* %5, align 4
  br label %105

128:                                              ; preds = %105
  %129 = load i32, i32* %7, align 4
  %130 = add nsw i32 %129, 1
  store i32 %130, i32* %7, align 4
  br label %147

131:                                              ; preds = %96
  %132 = load i32, i32* %2, align 4
  %133 = load i32, i32* %7, align 4
  %134 = sub nsw i32 %132, %133
  %135 = sub nsw i32 %134, 1
  %136 = sext i32 %135 to i64
  %137 = getelementptr inbounds [100 x [100 x i32]], [100 x [100 x i32]]* %11, i64 0, i64 %136
  %138 = load i32, i32* %8, align 4
  %139 = sext i32 %138 to i64
  %140 = getelementptr inbounds [100 x i32], [100 x i32]* %137, i64 0, i64 %139
  %141 = load i32, i32* %140, align 4
  %142 = call i32 (i8*, ...) @printf(i8* getelementptr inbounds ([4 x i8], [4 x i8]* @.str.2, i64 0, i64 0), i32 %141)
  %143 = load i32, i32* %7, align 4
  %144 = add nsw i32 %143, 1
  store i32 %144, i32* %7, align 4
  %145 = load i32, i32* %10, align 4
  %146 = add nsw i32 %145, -1
  store i32 %146, i32* %10, align 4
  br label %147

147:                                              ; preds = %131, %128
  br label %148

148:                                              ; preds = %147, %93
  %149 = load i32, i32* %10, align 4
  %150 = icmp ne i32 %149, 0
  br i1 %150, label %151, label %204

151:                                              ; preds = %148
  %152 = load i32, i32* %6, align 4
  %153 = load i32, i32* %7, align 4
  %154 = add nsw i32 %152, %153
  %155 = load i32, i32* %2, align 4
  %156 = sub nsw i32 %155, 1
  %157 = icmp ne i32 %154, %156
  br i1 %157, label %158, label %187

158:                                              ; preds = %151
  %159 = load i32, i32* %2, align 4
  %160 = load i32, i32* %7, align 4
  %161 = sub nsw i32 %159, %160
  %162 = sub nsw i32 %161, 1
  store i32 %162, i32* %4, align 4
  br label %163

163:                                              ; preds = %181, %158
  %164 = load i32, i32* %4, align 4
  %165 = load i32, i32* %6, align 4
  %166 = icmp sge i32 %164, %165
  br i1 %166, label %167, label %184

167:                                              ; preds = %163
  %168 = load i32, i32* %4, align 4
  %169 = sext i32 %168 to i64
  %170 = getelementptr inbounds [100 x [100 x i32]], [100 x [100 x i32]]* %11, i64 0, i64 %169
  %171 = load i32, i32* %3, align 4
  %172 = load i32, i32* %9, align 4
  %173 = sub nsw i32 %171, %172
  %174 = sub nsw i32 %173, 1
  %175 = sext i32 %174 to i64
  %176 = getelementptr inbounds [100 x i32], [100 x i32]* %170, i64 0, i64 %175
  %177 = load i32, i32* %176, align 4
  %178 = call i32 (i8*, ...) @printf(i8* getelementptr inbounds ([4 x i8], [4 x i8]* @.str.2, i64 0, i64 0), i32 %177)
  %179 = load i32, i32* %10, align 4
  %180 = add nsw i32 %179, -1
  store i32 %180, i32* %10, align 4
  br label %181

181:                                              ; preds = %167
  %182 = load i32, i32* %4, align 4
  %183 = add nsw i32 %182, -1
  store i32 %183, i32* %4, align 4
  br label %163

184:                                              ; preds = %163
  %185 = load i32, i32* %9, align 4
  %186 = add nsw i32 %185, 1
  store i32 %186, i32* %9, align 4
  br label %203

187:                                              ; preds = %151
  %188 = load i32, i32* %6, align 4
  %189 = sext i32 %188 to i64
  %190 = getelementptr inbounds [100 x [100 x i32]], [100 x [100 x i32]]* %11, i64 0, i64 %189
  %191 = load i32, i32* %3, align 4
  %192 = load i32, i32* %9, align 4
  %193 = sub nsw i32 %191, %192
  %194 = sub nsw i32 %193, 1
  %195 = sext i32 %194 to i64
  %196 = getelementptr inbounds [100 x i32], [100 x i32]* %190, i64 0, i64 %195
  %197 = load i32, i32* %196, align 4
  %198 = call i32 (i8*, ...) @printf(i8* getelementptr inbounds ([4 x i8], [4 x i8]* @.str.2, i64 0, i64 0), i32 %197)
  %199 = load i32, i32* %10, align 4
  %200 = add nsw i32 %199, -1
  store i32 %200, i32* %10, align 4
  %201 = load i32, i32* %9, align 4
  %202 = add nsw i32 %201, 1
  store i32 %202, i32* %9, align 4
  br label %203

203:                                              ; preds = %187, %184
  br label %204

204:                                              ; preds = %203, %148
  %205 = load i32, i32* %10, align 4
  %206 = icmp ne i32 %205, 0
  br i1 %206, label %207, label %254

207:                                              ; preds = %204
  %208 = load i32, i32* %8, align 4
  %209 = load i32, i32* %9, align 4
  %210 = add nsw i32 %208, %209
  %211 = load i32, i32* %3, align 4
  %212 = sub nsw i32 %211, 1
  %213 = icmp ne i32 %210, %212
  br i1 %213, label %214, label %240

214:                                              ; preds = %207
  %215 = load i32, i32* %3, align 4
  %216 = load i32, i32* %9, align 4
  %217 = sub nsw i32 %215, %216
  %218 = sub nsw i32 %217, 1
  store i32 %218, i32* %5, align 4
  br label %219

219:                                              ; preds = %234, %214
  %220 = load i32, i32* %5, align 4
  %221 = load i32, i32* %8, align 4
  %222 = icmp sge i32 %220, %221
  br i1 %222, label %223, label %237

223:                                              ; preds = %219
  %224 = load i32, i32* %6, align 4
  %225 = sext i32 %224 to i64
  %226 = getelementptr inbounds [100 x [100 x i32]], [100 x [100 x i32]]* %11, i64 0, i64 %225
  %227 = load i32, i32* %5, align 4
  %228 = sext i32 %227 to i64
  %229 = getelementptr inbounds [100 x i32], [100 x i32]* %226, i64 0, i64 %228
  %230 = load i32, i32* %229, align 4
  %231 = call i32 (i8*, ...) @printf(i8* getelementptr inbounds ([4 x i8], [4 x i8]* @.str.2, i64 0, i64 0), i32 %230)
  %232 = load i32, i32* %10, align 4
  %233 = add nsw i32 %232, -1
  store i32 %233, i32* %10, align 4
  br label %234

234:                                              ; preds = %223
  %235 = load i32, i32* %5, align 4
  %236 = add nsw i32 %235, -1
  store i32 %236, i32* %5, align 4
  br label %219

237:                                              ; preds = %219
  %238 = load i32, i32* %6, align 4
  %239 = add nsw i32 %238, 1
  store i32 %239, i32* %6, align 4
  br label %253

240:                                              ; preds = %207
  %241 = load i32, i32* %6, align 4
  %242 = sext i32 %241 to i64
  %243 = getelementptr inbounds [100 x [100 x i32]], [100 x [100 x i32]]* %11, i64 0, i64 %242
  %244 = load i32, i32* %8, align 4
  %245 = sext i32 %244 to i64
  %246 = getelementptr inbounds [100 x i32], [100 x i32]* %243, i64 0, i64 %245
  %247 = load i32, i32* %246, align 4
  %248 = call i32 (i8*, ...) @printf(i8* getelementptr inbounds ([4 x i8], [4 x i8]* @.str.2, i64 0, i64 0), i32 %247)
  %249 = load i32, i32* %6, align 4
  %250 = add nsw i32 %249, 1
  store i32 %250, i32* %6, align 4
  %251 = load i32, i32* %10, align 4
  %252 = add nsw i32 %251, -1
  store i32 %252, i32* %10, align 4
  br label %253

253:                                              ; preds = %240, %237
  br label %254

254:                                              ; preds = %253, %204
  br label %41

255:                                              ; preds = %41
  ret i32 0
}